; Function Attrs: mustprogress nounwind uwtable
define hidden void @_ZN4ncnn3NetD0Ev(ptr noundef nonnull align 8 dereferenceable(80) initializes((0, 8)) %0) unnamed_addr #0 align 2 personality ptr @__gxx_personality_v0 {
  store ptr getelementptr inbounds nuw inrange(-16, 56) (i8, ptr @_ZTVN4ncnn3NetE, i64 16), ptr %0, align 8, !tbaa !4
  invoke void @_ZN4ncnn3Net5clearEv(ptr noundef nonnull align 8 dereferenceable(80) %0)
          to label %2 unwind label %7

2:                                                ; preds = %1
  %3 = getelementptr inbounds nuw i8, ptr %0, i64 72
  %4 = load ptr, ptr %3, align 8, !tbaa !7
  %5 = icmp eq ptr %4, null
  br i1 %5, label %_ZN4ncnn3NetD2Ev.exit, label %6

6:                                                ; preds = %2
  tail call void @_ZN4ncnn10NetPrivateD2Ev(ptr noundef nonnull align 8 dereferenceable(216) %4) #26
  tail call void @_ZdlPvm(ptr noundef nonnull %4, i64 noundef 216) #27
  br label %_ZN4ncnn3NetD2Ev.exit

7:                                                ; preds = %1
  %8 = landingpad { ptr, i32 }
          catch ptr null
  %9 = extractvalue { ptr, i32 } %8, 0
  tail call void @__clang_call_terminate(ptr %9) #28
  unreachable

_ZN4ncnn3NetD2Ev.exit:                            ; preds = %2, %6
  tail call void @_ZdlPvm(ptr noundef nonnull %0, i64 noundef 80) #27
  ret void
}